target datalayout = "e-m:e-p270:32:32-p271:32:32-p272:64:64-i64:64-i128:128-f80:128-n8:16:32:64-S128"
target triple = "x86_64-pc-linux-gnu"

%"class.icu_77::Transliterator" = type <{ %"class.icu_77::UObject", %"class.icu_77::UnicodeString", ptr, i32, [4 x i8] }>
%"class.icu_77::UObject" = type { ptr }
%"class.icu_77::UnicodeString" = type { %"class.icu_77::Replaceable", %"union.icu_77::UnicodeString::StackBufferOrFields" }
%"class.icu_77::Replaceable" = type { %"class.icu_77::UObject" }
%"union.icu_77::UnicodeString::StackBufferOrFields" = type { %struct.anon.0, [32 x i8] }
%struct.anon.0 = type { i16, i32, i32, ptr }

; Function Attrs: mustprogress nounwind uwtable
define void @_ZN6icu_7714Transliterator11adoptFilterEPNS_13UnicodeFilterE(ptr noundef nonnull align 8 dereferenceable(84) %0, ptr noundef %1) #0 align 2 {
  %3 = alloca ptr, align 8
  %4 = alloca ptr, align 8
  store ptr %0, ptr %3, align 8, !tbaa !23
  store ptr %1, ptr %4, align 8, !tbaa !27
  %5 = load ptr, ptr %3, align 8
  %6 = getelementptr inbounds nuw %"class.icu_77::Transliterator", ptr %5, i32 0, i32 2
  %7 = load ptr, ptr %6, align 8, !tbaa !31
  %8 = icmp eq ptr %7, null
  br i1 %8, label %13, label %9

9:                                                ; preds = %2
  %10 = load ptr, ptr %7, align 8, !tbaa !29
  %11 = getelementptr inbounds ptr, ptr %10, i64 1
  %12 = load ptr, ptr %11, align 8
  call void %12(ptr noundef nonnull align 8 dereferenceable(16) %7) #15
  br label %13

13:                                               ; preds = %9, %2
  %14 = load ptr, ptr %4, align 8, !tbaa !27
  %15 = getelementptr inbounds nuw %"class.icu_77::Transliterator", ptr %5, i32 0, i32 2
  store ptr %14, ptr %15, align 8, !tbaa !31
  ret void
}

; Function Attrs: mustprogress uwtable
define noundef nonnull align 8 dereferenceable(84) ptr @_ZN6icu_7714TransliteratoraSERKS0_(ptr noundef nonnull align 8 dereferenceable(84) %0, ptr noundef nonnull align 8 dereferenceable(84) %1) #1 align 2 {
  %3 = alloca ptr, align 8
  %4 = alloca ptr, align 8
  %5 = alloca ptr, align 8
  store ptr %0, ptr %4, align 8, !tbaa !23
  store ptr %1, ptr %5, align 8, !tbaa !23
  %6 = load ptr, ptr %4, align 8
  %7 = load ptr, ptr %5, align 8, !tbaa !23
  %8 = icmp eq ptr %6, %7
  br i1 %8, label %9, label %10

9:                                                ; preds = %2
  store ptr %6, ptr %3, align 8
  br label %36

10:                                               ; preds = %2
  %11 = load ptr, ptr %5, align 8, !tbaa !23
  %12 = getelementptr inbounds nuw %"class.icu_77::Transliterator", ptr %11, i32 0, i32 1
  %13 = getelementptr inbounds nuw %"class.icu_77::Transliterator", ptr %6, i32 0, i32 1
  %14 = call noundef nonnull align 8 dereferenceable(64) ptr @_ZN6icu_7713UnicodeStringaSERKS0_(ptr noundef nonnull align 8 dereferenceable(64) %13, ptr noundef nonnull align 8 dereferenceable(64) %12)
  %15 = getelementptr inbounds nuw %"class.icu_77::Transliterator", ptr %6, i32 0, i32 1
  %16 = call noundef ptr @_ZN6icu_7713UnicodeString19getTerminatedBufferEv(ptr noundef nonnull align 8 dereferenceable(64) %15)
  %17 = load ptr, ptr %5, align 8, !tbaa !23
  %18 = getelementptr inbounds nuw %"class.icu_77::Transliterator", ptr %17, i32 0, i32 3
  %19 = load i32, ptr %18, align 8, !tbaa !36
  %20 = getelementptr inbounds nuw %"class.icu_77::Transliterator", ptr %6, i32 0, i32 3
  store i32 %19, ptr %20, align 8, !tbaa !36
  %21 = load ptr, ptr %5, align 8, !tbaa !23
  %22 = getelementptr inbounds nuw %"class.icu_77::Transliterator", ptr %21, i32 0, i32 2
  %23 = load ptr, ptr %22, align 8, !tbaa !31
  %24 = icmp eq ptr %23, null
  br i1 %24, label %25, label %26

25:                                               ; preds = %10
  br label %34

26:                                               ; preds = %10
  %27 = load ptr, ptr %5, align 8, !tbaa !23
  %28 = getelementptr inbounds nuw %"class.icu_77::Transliterator", ptr %27, i32 0, i32 2
  %29 = load ptr, ptr %28, align 8, !tbaa !31
  %30 = load ptr, ptr %29, align 8, !tbaa !29
  %31 = getelementptr inbounds ptr, ptr %30, i64 3
  %32 = load ptr, ptr %31, align 8
  %33 = call noundef ptr %32(ptr noundef nonnull align 8 dereferenceable(16) %29)
  br label %34

34:                                               ; preds = %26, %25
  %35 = phi ptr [ null, %25 ], [ %33, %26 ]
  call void @_ZN6icu_7714Transliterator11adoptFilterEPNS_13UnicodeFilterE(ptr noundef nonnull align 8 dereferenceable(84) %6, ptr noundef %35)
  store ptr %6, ptr %3, align 8
  br label %36

36:                                               ; preds = %34, %9
  %37 = load ptr, ptr %3, align 8
  ret ptr %37
}