; Function Attrs: mustprogress uwtable
define noundef nonnull align 8 dereferenceable(84) ptr @_ZN6icu_7714TransliteratoraSERKS0_(ptr noundef nonnull returned align 8 dereferenceable(84) %0, ptr noundef nonnull align 8 dereferenceable(84) %1) local_unnamed_addr #1 align 2 {
  %3 = icmp eq ptr %0, %1
  br i1 %3, label %29, label %4

4:                                                ; preds = %2
  %5 = getelementptr inbounds nuw i8, ptr %1, i64 8
  %6 = getelementptr inbounds nuw i8, ptr %0, i64 8
  %7 = tail call noundef nonnull align 8 dereferenceable(64) ptr @_ZN6icu_7713UnicodeStringaSERKS0_(ptr noundef nonnull align 8 dereferenceable(64) %6, ptr noundef nonnull align 8 dereferenceable(64) %5)
  %8 = tail call noundef ptr @_ZN6icu_7713UnicodeString19getTerminatedBufferEv(ptr noundef nonnull align 8 dereferenceable(64) %6)
  %9 = getelementptr inbounds nuw i8, ptr %1, i64 80
  %10 = load i32, ptr %9, align 8, !tbaa !23
  %11 = getelementptr inbounds nuw i8, ptr %0, i64 80
  store i32 %10, ptr %11, align 8, !tbaa !23
  %12 = getelementptr inbounds nuw i8, ptr %1, i64 72
  %13 = load ptr, ptr %12, align 8, !tbaa !17
  %14 = icmp eq ptr %13, null
  br i1 %14, label %20, label %15

15:                                               ; preds = %4
  %16 = load ptr, ptr %13, align 8, !tbaa !15
  %17 = getelementptr inbounds nuw i8, ptr %16, i64 24
  %18 = load ptr, ptr %17, align 8
  %19 = tail call noundef ptr %18(ptr noundef nonnull align 8 dereferenceable(16) %13)
  br label %20

20:                                               ; preds = %4, %15
  %21 = phi ptr [ %19, %15 ], [ null, %4 ]
  %22 = getelementptr inbounds nuw i8, ptr %0, i64 72
  %23 = load ptr, ptr %22, align 8, !tbaa !17
  %24 = icmp eq ptr %23, null
  br i1 %24, label %_ZN6icu_7714Transliterator11adoptFilterEPNS_13UnicodeFilterE.exit, label %25

25:                                               ; preds = %20
  %26 = load ptr, ptr %23, align 8, !tbaa !15
  %27 = getelementptr inbounds nuw i8, ptr %26, i64 8
  %28 = load ptr, ptr %27, align 8
  tail call void %28(ptr noundef nonnull align 8 dereferenceable(16) %23) #21
  br label %_ZN6icu_7714Transliterator11adoptFilterEPNS_13UnicodeFilterE.exit

_ZN6icu_7714Transliterator11adoptFilterEPNS_13UnicodeFilterE.exit: ; preds = %20, %25
  store ptr %21, ptr %22, align 8, !tbaa !17
  br label %29

29:                                               ; preds = %2, %_ZN6icu_7714Transliterator11adoptFilterEPNS_13UnicodeFilterE.exit
  ret ptr %0
}